target datalayout = "e-m:e-p270:32:32-p271:32:32-p272:64:64-i64:64-i128:128-f80:128-n8:16:32:64-S128"
target triple = "x86_64-pc-linux-gnu"

%"struct.cv::detail::tracking::TrackerSamplerCSC::Params" = type { float, float, float, i32, i32, i32 }
%"class.cv::detail::tracking::TrackerSamplerCSC" = type { %"class.cv::detail::tracking::TrackerSamplerAlgorithm", %"struct.cv::detail::tracking::TrackerSamplerCSC::Params", i32, %"class.cv::RNG" }
%"class.cv::detail::tracking::TrackerSamplerAlgorithm" = type { ptr }
%"class.cv::RNG" = type { i64 }

; Function Attrs: mustprogress nounwind uwtable
define void @_ZN2cv6detail8tracking23TrackerSamplerAlgorithmD2Ev(ptr noundef nonnull align 8 dereferenceable(8) %0) unnamed_addr #0 align 2 {
  %2 = alloca ptr, align 8
  store ptr %0, ptr %2, align 8, !tbaa !3
  ret void
}

; Function Attrs: inlinehint mustprogress nounwind uwtable
define linkonce_odr hidden void @_ZN2cv3RNGC2Ev(ptr noundef nonnull align 8 dereferenceable(8) %0) unnamed_addr #3 comdat align 2 {
  %2 = alloca ptr, align 8
  store ptr %0, ptr %2, align 8, !tbaa !33
  %3 = load ptr, ptr %2, align 8
  %4 = getelementptr inbounds nuw %"class.cv::RNG", ptr %3, i32 0, i32 0
  store i64 4294967295, ptr %4, align 8, !tbaa !35
  ret void
}

; Function Attrs: inlinehint mustprogress nounwind uwtable
define linkonce_odr hidden void @_ZN2cv6detail8tracking23TrackerSamplerAlgorithmC2Ev(ptr noundef nonnull align 8 dereferenceable(8) %0) unnamed_addr #3 comdat align 2 {
  %2 = alloca ptr, align 8
  store ptr %0, ptr %2, align 8, !tbaa !3
  %3 = load ptr, ptr %2, align 8
  store ptr getelementptr inbounds inrange(-16, 24) ({ [5 x ptr] }, ptr @_ZTVN2cv6detail8tracking23TrackerSamplerAlgorithmE, i32 0, i32 0, i32 2), ptr %3, align 8, !tbaa !21
  ret void
}

; Function Attrs: mustprogress uwtable
define void @_ZN2cv6detail8tracking17TrackerSamplerCSCC2ERKNS2_6ParamsE(ptr noundef nonnull align 8 dereferenceable(48) %0, ptr noundef nonnull align 4 dereferenceable(24) %1) unnamed_addr #2 align 2 personality ptr @__gxx_personality_v0 {
  %3 = alloca ptr, align 8
  %4 = alloca ptr, align 8
  %5 = alloca ptr, align 8
  %6 = alloca i32, align 4
  store ptr %0, ptr %3, align 8, !tbaa !19
  store ptr %1, ptr %4, align 8, !tbaa !8
  %7 = load ptr, ptr %3, align 8
  call void @_ZN2cv6detail8tracking23TrackerSamplerAlgorithmC2Ev(ptr noundef nonnull align 8 dereferenceable(8) %7) #17
  store ptr getelementptr inbounds inrange(-16, 24) ({ [5 x ptr] }, ptr @_ZTVN2cv6detail8tracking17TrackerSamplerCSCE, i32 0, i32 0, i32 2), ptr %7, align 8, !tbaa !21
  %8 = getelementptr inbounds nuw %"class.cv::detail::tracking::TrackerSamplerCSC", ptr %7, i32 0, i32 1
  %9 = load ptr, ptr %4, align 8, !tbaa !8
  call void @llvm.memcpy.p0.p0.i64(ptr align 8 %8, ptr align 4 %9, i64 24, i1 false), !tbaa.struct !23
  %10 = getelementptr inbounds nuw %"class.cv::detail::tracking::TrackerSamplerCSC", ptr %7, i32 0, i32 3
  invoke void @_ZN2cv3RNGC2Ev(ptr noundef nonnull align 8 dereferenceable(8) %10)
          to label %11 unwind label %16

11:                                               ; preds = %2
  %12 = getelementptr inbounds nuw %"class.cv::detail::tracking::TrackerSamplerCSC", ptr %7, i32 0, i32 2
  store i32 1, ptr %12, align 8, !tbaa !26
  %13 = invoke noundef nonnull align 8 dereferenceable(8) ptr @_ZN2cv6theRNGEv()
          to label %14 unwind label %16

14:                                               ; preds = %11
  %15 = getelementptr inbounds nuw %"class.cv::detail::tracking::TrackerSamplerCSC", ptr %7, i32 0, i32 3
  call void @llvm.memcpy.p0.p0.i64(ptr align 8 %15, ptr align 8 %13, i64 8, i1 false), !tbaa.struct !31
  ret void

16:                                               ; preds = %11, %2
  %17 = landingpad { ptr, i32 }
          cleanup
  %18 = extractvalue { ptr, i32 } %17, 0
  store ptr %18, ptr %5, align 8
  %19 = extractvalue { ptr, i32 } %17, 1
  store i32 %19, ptr %6, align 4
  call void @_ZN2cv6detail8tracking23TrackerSamplerAlgorithmD2Ev(ptr noundef nonnull align 8 dereferenceable(8) %7) #17
  br label %20

20:                                               ; preds = %16
  %21 = load ptr, ptr %5, align 8
  %22 = load i32, ptr %6, align 4
  %23 = insertvalue { ptr, i32 } poison, ptr %21, 0
  %24 = insertvalue { ptr, i32 } %23, i32 %22, 1
  resume { ptr, i32 } %24
}