; Function Attrs: mustprogress uwtable
define void @_ZN2cv6detail8tracking17TrackerSamplerCSCC2ERKNS2_6ParamsE(ptr noundef nonnull writeonly align 8 captures(none) dereferenceable(48) initializes((0, 36), (40, 48)) %0, ptr noundef nonnull readonly align 4 captures(none) dereferenceable(24) %1) unnamed_addr #4 align 2 personality ptr @__gxx_personality_v0 {
  store ptr getelementptr inbounds nuw inrange(-16, 24) (i8, ptr @_ZTVN2cv6detail8tracking17TrackerSamplerCSCE, i64 16), ptr %0, align 8, !tbaa !14
  %3 = getelementptr inbounds nuw i8, ptr %0, i64 8
  tail call void @llvm.memcpy.p0.p0.i64(ptr noundef nonnull align 8 dereferenceable(24) %3, ptr noundef nonnull align 4 dereferenceable(24) %1, i64 24, i1 false), !tbaa.struct !16
  %4 = getelementptr inbounds nuw i8, ptr %0, i64 40
  store i64 4294967295, ptr %4, align 8, !tbaa !19
  %5 = getelementptr inbounds nuw i8, ptr %0, i64 32
  store i32 1, ptr %5, align 8, !tbaa !22
  %6 = tail call noundef nonnull align 8 dereferenceable(8) ptr @_ZN2cv6theRNGEv()
  %7 = load i64, ptr %6, align 8, !tbaa !25
  store i64 %7, ptr %4, align 8, !tbaa !25
  ret void
}